(lp1
Vlarry the cable guy
p2
aVthe first queer santy claus 
p3
aVThe first queer Santy Claus\u000aWore red leather chaps\u000aAnd a pair of white shorty shorts\u000aThat had a hole in the butt crack
p4
a.